target datalayout = "e-m:e-p270:32:32-p271:32:32-p272:64:64-i64:64-i128:128-f80:128-n8:16:32:64-S128"
target triple = "x86_64-unknown-linux-gnu"

%struct.QemuTextConsole = type { %struct.QemuConsole, i32, i32, i32, i32, i32, i32, i32, i32, ptr, [2 x i32], [2 x i32], i32, i32, i32, i32, i32, i32, ptr, %struct.Fifo8 }
%struct.QemuConsole = type { %struct.Object, i32, ptr, ptr, %struct.DisplayScanout, i32, ptr, i32, ptr, i32, %struct.QemuUIInfo, ptr, ptr, ptr, %struct.CoQueue, %union.anon.0 }
%struct.Object = type { ptr, ptr, ptr, i32, ptr }
%struct.DisplayScanout = type { i32, %union.anon }
%union.anon = type { %struct.ScanoutTexture }
%struct.ScanoutTexture = type { i32, i8, i32, i32, i32, i32, i32, i32, ptr }
%struct.QemuUIInfo = type { i16, i16, i32, i32, i32, i32, i32 }
%struct.CoQueue = type { %struct.anon }
%struct.anon = type { ptr, ptr }
%union.anon.0 = type { %struct.QTailQLink }
%struct.QTailQLink = type { ptr, ptr }
%struct.Fifo8 = type { ptr, i32, i32, i32 }
%struct.Chardev = type { %struct.Object, %struct.QemuMutex, ptr, ptr, ptr, i32, i32, i8, ptr, ptr, [1 x i64] }
%struct.QemuMutex = type { %union.pthread_mutex_t, i8 }
%union.pthread_mutex_t = type { %struct.__pthread_mutex_s }
%struct.__pthread_mutex_s = type { i32, i32, i32, i32, i32, i16, i16, %struct.__pthread_internal_list }
%struct.__pthread_internal_list = type { ptr, ptr }
%struct.TextAttributes = type { i16 }
%struct.ChardevBackend = type { i32, %union.anon.1 }
%union.anon.1 = type { %struct.ChardevFileWrapper }
%struct.ChardevFileWrapper = type { ptr }
%struct.ChardevVCWrapper = type { ptr }
%struct.ChardevVC = type { ptr, i8, i8, i8, i64, i8, i64, i8, i64, i8, i64 }
%struct.VCChardev = type { %struct.Chardev, ptr, i32, [3 x i32], i32, %struct.TextAttributes, i32, i32 }
%struct.timeval = type { i64, i64 }

@.str.1 = private unnamed_addr constant [11 x i8] c"chardev-vc\00", align 1
@.str.2 = private unnamed_addr constant [18 x i8] c"qemu-text-console\00", align 1
@.str.3 = private unnamed_addr constant [13 x i8] c"qemu-console\00", align 1
@.str.4 = private unnamed_addr constant [99 x i8] c"/home/dtcxzyw/WorkSpace/Projects/compilers/llvm-opt-benchmark/bench/qemu/qemu/include/ui/console.h\00", align 1
@__func__.QEMU_TEXT_CONSOLE = private unnamed_addr constant [18 x i8] c"QEMU_TEXT_CONSOLE\00", align 1
@.str.5 = private unnamed_addr constant [24 x i8] c"qemu-fixed-text-console\00", align 1
@.str.7 = private unnamed_addr constant [24 x i8] c"../qemu/ui/console-vc.c\00", align 1
@__func__.QEMU_CONSOLE = private unnamed_addr constant [13 x i8] c"QEMU_CONSOLE\00", align 1
@.str.17 = private unnamed_addr constant [13 x i8] c"%s console\0D\0A\00", align 1
@__func__.VC_CHARDEV = private unnamed_addr constant [11 x i8] c"VC_CHARDEV\00", align 1
@trace_events_enabled_count = external global i32, align 4
@_TRACE_CONSOLE_TXT_NEW_DSTATE = external global i16, align 2
@message_with_timestamp = external global i8, align 1
@.str.18 = private unnamed_addr constant [36 x i8] c"%d@%zu.%06zu:console_txt_new %dx%d\0A\00", align 1
@.str.19 = private unnamed_addr constant [23 x i8] c"console_txt_new %dx%d\0A\00", align 1
@qemu_loglevel = external global i32, align 4

; Function Attrs: nounwind sspstrong uwtable
define internal zeroext i1 @qemu_loglevel_mask(i32 noundef %mask) #0 {
entry:
  %mask.addr = alloca i32, align 4
  store i32 %mask, ptr %mask.addr, align 4
  %0 = load i32, ptr @qemu_loglevel, align 4
  %1 = load i32, ptr %mask.addr, align 4
  %and = and i32 %0, %1
  %cmp = icmp ne i32 %and, 0
  ret i1 %cmp
}

; Function Attrs: nounwind sspstrong uwtable
define internal void @_nocheck__trace_console_txt_new(i32 noundef %w, i32 noundef %h) #0 {
entry:
  %w.addr = alloca i32, align 4
  %h.addr = alloca i32, align 4
  %_now = alloca %struct.timeval, align 8
  store i32 %w, ptr %w.addr, align 4
  store i32 %h, ptr %h.addr, align 4
  %0 = load i32, ptr @trace_events_enabled_count, align 4
  %tobool = icmp ne i32 %0, 0
  %lnot = xor i1 %tobool, true
  %lnot1 = xor i1 %lnot, true
  %lnot.ext = zext i1 %lnot1 to i32
  %conv = sext i32 %lnot.ext to i64
  %tobool2 = icmp ne i64 %conv, 0
  br i1 %tobool2, label %land.lhs.true, label %if.end11

land.lhs.true:                                    ; preds = %entry
  %1 = load i16, ptr @_TRACE_CONSOLE_TXT_NEW_DSTATE, align 2
  %conv3 = zext i16 %1 to i32
  %tobool4 = icmp ne i32 %conv3, 0
  br i1 %tobool4, label %land.lhs.true5, label %if.end11

land.lhs.true5:                                   ; preds = %land.lhs.true
  %call = call zeroext i1 @qemu_loglevel_mask(i32 noundef 32768)
  br i1 %call, label %if.then, label %if.end11

if.then:                                          ; preds = %land.lhs.true5
  %2 = load i8, ptr @message_with_timestamp, align 1
  %tobool7 = trunc i8 %2 to i1
  br i1 %tobool7, label %if.then8, label %if.else

if.then8:                                         ; preds = %if.then
  %call9 = call i32 @gettimeofday(ptr noundef %_now, ptr noundef null) #10
  %call10 = call i32 @qemu_get_thread_id()
  %tv_sec = getelementptr inbounds %struct.timeval, ptr %_now, i32 0, i32 0
  %3 = load i64, ptr %tv_sec, align 8
  %tv_usec = getelementptr inbounds %struct.timeval, ptr %_now, i32 0, i32 1
  %4 = load i64, ptr %tv_usec, align 8
  %5 = load i32, ptr %w.addr, align 4
  %6 = load i32, ptr %h.addr, align 4
  call void (ptr, ...) @qemu_log(ptr noundef @.str.18, i32 noundef %call10, i64 noundef %3, i64 noundef %4, i32 noundef %5, i32 noundef %6)
  br label %if.end

if.else:                                          ; preds = %if.then
  %7 = load i32, ptr %w.addr, align 4
  %8 = load i32, ptr %h.addr, align 4
  call void (ptr, ...) @qemu_log(ptr noundef @.str.19, i32 noundef %7, i32 noundef %8)
  br label %if.end

if.end:                                           ; preds = %if.else, %if.then8
  br label %if.end11

if.end11:                                         ; preds = %if.end, %land.lhs.true5, %land.lhs.true, %entry
  ret void
}

; Function Attrs: nounwind sspstrong uwtable
define internal ptr @QEMU_CONSOLE(ptr noundef %obj) #0 {
entry:
  %obj.addr = alloca ptr, align 8
  store ptr %obj, ptr %obj.addr, align 8
  %0 = load ptr, ptr %obj.addr, align 8
  %call = call ptr @object_dynamic_cast_assert(ptr noundef %0, ptr noundef @.str.3, ptr noundef @.str.4, i32 noundef 12, ptr noundef @__func__.QEMU_CONSOLE)
  ret ptr %call
}

; Function Attrs: nounwind sspstrong uwtable
define internal ptr @QEMU_TEXT_CONSOLE(ptr noundef %obj) #0 {
entry:
  %obj.addr = alloca ptr, align 8
  store ptr %obj, ptr %obj.addr, align 8
  %0 = load ptr, ptr %obj.addr, align 8
  %call = call ptr @object_dynamic_cast_assert(ptr noundef %0, ptr noundef @.str.2, ptr noundef @.str.4, i32 noundef 18, ptr noundef @__func__.QEMU_TEXT_CONSOLE)
  ret ptr %call
}

; Function Attrs: nounwind sspstrong uwtable
define internal void @trace_console_txt_new(i32 noundef %w, i32 noundef %h) #0 {
entry:
  %w.addr = alloca i32, align 4
  %h.addr = alloca i32, align 4
  store i32 %w, ptr %w.addr, align 4
  store i32 %h, ptr %h.addr, align 4
  %0 = load i32, ptr %w.addr, align 4
  %1 = load i32, ptr %h.addr, align 4
  call void @_nocheck__trace_console_txt_new(i32 noundef %0, i32 noundef %1)
  ret void
}

; Function Attrs: nounwind sspstrong uwtable
define internal ptr @VC_CHARDEV(ptr noundef %obj) #0 {
entry:
  %obj.addr = alloca ptr, align 8
  store ptr %obj, ptr %obj.addr, align 8
  %0 = load ptr, ptr %obj.addr, align 8
  %call = call ptr @object_dynamic_cast_assert(ptr noundef %0, ptr noundef @.str.1, ptr noundef @.str.7, i32 noundef 852, ptr noundef @__func__.VC_CHARDEV)
  ret ptr %call
}

; Function Attrs: nounwind sspstrong uwtable
define internal void @vc_chr_open(ptr noundef %chr, ptr noundef %backend, ptr noundef %be_opened, ptr noundef %errp) #0 {
entry:
  %chr.addr = alloca ptr, align 8
  %backend.addr = alloca ptr, align 8
  %be_opened.addr = alloca ptr, align 8
  %errp.addr = alloca ptr, align 8
  %vc = alloca ptr, align 8
  %drv = alloca ptr, align 8
  %s = alloca ptr, align 8
  %width = alloca i32, align 4
  %height = alloca i32, align 4
  %.compoundliteral = alloca %struct.TextAttributes, align 1
  %msg = alloca ptr, align 8
  %.compoundliteral62 = alloca %struct.TextAttributes, align 1
  store ptr %chr, ptr %chr.addr, align 8
  store ptr %backend, ptr %backend.addr, align 8
  store ptr %be_opened, ptr %be_opened.addr, align 8
  store ptr %errp, ptr %errp.addr, align 8
  %0 = load ptr, ptr %backend.addr, align 8
  %u = getelementptr inbounds %struct.ChardevBackend, ptr %0, i32 0, i32 1
  %data = getelementptr inbounds %struct.ChardevVCWrapper, ptr %u, i32 0, i32 0
  %1 = load ptr, ptr %data, align 8
  store ptr %1, ptr %vc, align 8
  %2 = load ptr, ptr %chr.addr, align 8
  %call = call ptr @VC_CHARDEV(ptr noundef %2)
  store ptr %call, ptr %drv, align 8
  store i32 0, ptr %width, align 4
  store i32 0, ptr %height, align 4
  %3 = load ptr, ptr %vc, align 8
  %has_width = getelementptr inbounds %struct.ChardevVC, ptr %3, i32 0, i32 3
  %4 = load i8, ptr %has_width, align 2
  %tobool = trunc i8 %4 to i1
  br i1 %tobool, label %if.then, label %if.else

if.then:                                          ; preds = %entry
  %5 = load ptr, ptr %vc, align 8
  %width1 = getelementptr inbounds %struct.ChardevVC, ptr %5, i32 0, i32 4
  %6 = load i64, ptr %width1, align 8
  %conv = trunc i64 %6 to i32
  store i32 %conv, ptr %width, align 4
  br label %if.end5

if.else:                                          ; preds = %entry
  %7 = load ptr, ptr %vc, align 8
  %has_cols = getelementptr inbounds %struct.ChardevVC, ptr %7, i32 0, i32 7
  %8 = load i8, ptr %has_cols, align 8
  %tobool2 = trunc i8 %8 to i1
  br i1 %tobool2, label %if.then3, label %if.end

if.then3:                                         ; preds = %if.else
  %9 = load ptr, ptr %vc, align 8
  %cols = getelementptr inbounds %struct.ChardevVC, ptr %9, i32 0, i32 8
  %10 = load i64, ptr %cols, align 8
  %mul = mul i64 %10, 8
  %conv4 = trunc i64 %mul to i32
  store i32 %conv4, ptr %width, align 4
  br label %if.end

if.end:                                           ; preds = %if.then3, %if.else
  br label %if.end5

if.end5:                                          ; preds = %if.end, %if.then
  %11 = load ptr, ptr %vc, align 8
  %has_height = getelementptr inbounds %struct.ChardevVC, ptr %11, i32 0, i32 5
  %12 = load i8, ptr %has_height, align 8
  %tobool6 = trunc i8 %12 to i1
  br i1 %tobool6, label %if.then7, label %if.else10

if.then7:                                         ; preds = %if.end5
  %13 = load ptr, ptr %vc, align 8
  %height8 = getelementptr inbounds %struct.ChardevVC, ptr %13, i32 0, i32 6
  %14 = load i64, ptr %height8, align 8
  %conv9 = trunc i64 %14 to i32
  store i32 %conv9, ptr %height, align 4
  br label %if.end16

if.else10:                                        ; preds = %if.end5
  %15 = load ptr, ptr %vc, align 8
  %has_rows = getelementptr inbounds %struct.ChardevVC, ptr %15, i32 0, i32 9
  %16 = load i8, ptr %has_rows, align 8
  %tobool11 = trunc i8 %16 to i1
  br i1 %tobool11, label %if.then12, label %if.end15

if.then12:                                        ; preds = %if.else10
  %17 = load ptr, ptr %vc, align 8
  %rows = getelementptr inbounds %struct.ChardevVC, ptr %17, i32 0, i32 10
  %18 = load i64, ptr %rows, align 8
  %mul13 = mul i64 %18, 16
  %conv14 = trunc i64 %mul13 to i32
  store i32 %conv14, ptr %height, align 4
  br label %if.end15

if.end15:                                         ; preds = %if.then12, %if.else10
  br label %if.end16

if.end16:                                         ; preds = %if.end15, %if.then7
  %19 = load i32, ptr %width, align 4
  %20 = load i32, ptr %height, align 4
  call void @trace_console_txt_new(i32 noundef %19, i32 noundef %20)
  %21 = load i32, ptr %width, align 4
  %cmp = icmp eq i32 %21, 0
  br i1 %cmp, label %if.then20, label %lor.lhs.false

lor.lhs.false:                                    ; preds = %if.end16
  %22 = load i32, ptr %height, align 4
  %cmp18 = icmp eq i32 %22, 0
  br i1 %cmp18, label %if.then20, label %if.else25

if.then20:                                        ; preds = %lor.lhs.false, %if.end16
  %call21 = call ptr @object_new(ptr noundef @.str.2)
  %call22 = call ptr @QEMU_TEXT_CONSOLE(ptr noundef %call21)
  store ptr %call22, ptr %s, align 8
  %call23 = call i32 @qemu_console_get_width(ptr noundef null, i32 noundef 640)
  store i32 %call23, ptr %width, align 4
  %call24 = call i32 @qemu_console_get_height(ptr noundef null, i32 noundef 384)
  store i32 %call24, ptr %height, align 4
  br label %if.end28

if.else25:                                        ; preds = %lor.lhs.false
  %call26 = call ptr @object_new(ptr noundef @.str.5)
  %call27 = call ptr @QEMU_TEXT_CONSOLE(ptr noundef %call26)
  store ptr %call27, ptr %s, align 8
  br label %if.end28

if.end28:                                         ; preds = %if.else25, %if.then20
  %23 = load ptr, ptr %s, align 8
  %call29 = call ptr @QEMU_CONSOLE(ptr noundef %23)
  %24 = load i32, ptr %width, align 4
  %25 = load i32, ptr %height, align 4
  %call30 = call ptr @qemu_create_displaysurface(i32 noundef %24, i32 noundef %25)
  call void @dpy_gfx_replace_surface(ptr noundef %call29, ptr noundef %call30)
  %26 = load ptr, ptr %chr.addr, align 8
  %27 = load ptr, ptr %s, align 8
  %chr31 = getelementptr inbounds %struct.QemuTextConsole, ptr %27, i32 0, i32 18
  store ptr %26, ptr %chr31, align 8
  %28 = load ptr, ptr %s, align 8
  %29 = load ptr, ptr %drv, align 8
  %console = getelementptr inbounds %struct.VCChardev, ptr %29, i32 0, i32 1
  store ptr %28, ptr %console, align 8
  %30 = load ptr, ptr %drv, align 8
  %t_attrib = getelementptr inbounds %struct.VCChardev, ptr %30, i32 0, i32 5
  %bf.load = load i16, ptr %.compoundliteral, align 1
  %bf.clear = and i16 %bf.load, -16
  %bf.set = or i16 %bf.clear, 7
  store i16 %bf.set, ptr %.compoundliteral, align 1
  %bf.load32 = load i16, ptr %.compoundliteral, align 1
  %bf.clear33 = and i16 %bf.load32, -241
  %bf.set34 = or i16 %bf.clear33, 0
  store i16 %bf.set34, ptr %.compoundliteral, align 1
  %bf.load35 = load i16, ptr %.compoundliteral, align 1
  %bf.clear36 = and i16 %bf.load35, -257
  %bf.set37 = or i16 %bf.clear36, 0
  store i16 %bf.set37, ptr %.compoundliteral, align 1
  %bf.load38 = load i16, ptr %.compoundliteral, align 1
  %bf.clear39 = and i16 %bf.load38, -513
  %bf.set40 = or i16 %bf.clear39, 0
  store i16 %bf.set40, ptr %.compoundliteral, align 1
  %bf.load41 = load i16, ptr %.compoundliteral, align 1
  %bf.clear42 = and i16 %bf.load41, -1025
  %bf.set43 = or i16 %bf.clear42, 0
  store i16 %bf.set43, ptr %.compoundliteral, align 1
  %bf.load44 = load i16, ptr %.compoundliteral, align 1
  %bf.clear45 = and i16 %bf.load44, -2049
  %bf.set46 = or i16 %bf.clear45, 0
  store i16 %bf.set46, ptr %.compoundliteral, align 1
  %bf.load47 = load i16, ptr %.compoundliteral, align 1
  %bf.clear48 = and i16 %bf.load47, -4097
  %bf.set49 = or i16 %bf.clear48, 0
  store i16 %bf.set49, ptr %.compoundliteral, align 1
  call void @llvm.memcpy.p0.p0.i64(ptr align 4 %t_attrib, ptr align 1 %.compoundliteral, i64 2, i1 false)
  %31 = load ptr, ptr %s, align 8
  call void @text_console_resize(ptr noundef %31)
  %32 = load ptr, ptr %chr.addr, align 8
  %label = getelementptr inbounds %struct.Chardev, ptr %32, i32 0, i32 3
  %33 = load ptr, ptr %label, align 8
  %tobool50 = icmp ne ptr %33, null
  br i1 %tobool50, label %if.then51, label %if.end84

if.then51:                                        ; preds = %if.end28
  %34 = load ptr, ptr %drv, align 8
  %t_attrib52 = getelementptr inbounds %struct.VCChardev, ptr %34, i32 0, i32 5
  %bf.load53 = load i16, ptr %t_attrib52, align 4
  %bf.clear54 = and i16 %bf.load53, -241
  %bf.set55 = or i16 %bf.clear54, 16
  store i16 %bf.set55, ptr %t_attrib52, align 4
  %35 = load ptr, ptr %chr.addr, align 8
  %label56 = getelementptr inbounds %struct.Chardev, ptr %35, i32 0, i32 3
  %36 = load ptr, ptr %label56, align 8
  %call57 = call noalias ptr (ptr, ...) @g_strdup_printf(ptr noundef @.str.17, ptr noundef %36)
  store ptr %call57, ptr %msg, align 8
  %37 = load ptr, ptr %chr.addr, align 8
  %38 = load ptr, ptr %msg, align 8
  %39 = load ptr, ptr %msg, align 8
  %call58 = call i64 @strlen(ptr noundef %39) #9
  %conv59 = trunc i64 %call58 to i32
  %call60 = call i32 @qemu_chr_write(ptr noundef %37, ptr noundef %38, i32 noundef %conv59, i1 noundef zeroext true)
  %40 = load ptr, ptr %msg, align 8
  call void @g_free(ptr noundef %40)
  %41 = load ptr, ptr %drv, align 8
  %t_attrib61 = getelementptr inbounds %struct.VCChardev, ptr %41, i32 0, i32 5
  %bf.load63 = load i16, ptr %.compoundliteral62, align 1
  %bf.clear64 = and i16 %bf.load63, -16
  %bf.set65 = or i16 %bf.clear64, 7
  store i16 %bf.set65, ptr %.compoundliteral62, align 1
  %bf.load66 = load i16, ptr %.compoundliteral62, align 1
  %bf.clear67 = and i16 %bf.load66, -241
  %bf.set68 = or i16 %bf.clear67, 0
  store i16 %bf.set68, ptr %.compoundliteral62, align 1
  %bf.load69 = load i16, ptr %.compoundliteral62, align 1
  %bf.clear70 = and i16 %bf.load69, -257
  %bf.set71 = or i16 %bf.clear70, 0
  store i16 %bf.set71, ptr %.compoundliteral62, align 1
  %bf.load72 = load i16, ptr %.compoundliteral62, align 1
  %bf.clear73 = and i16 %bf.load72, -513
  %bf.set74 = or i16 %bf.clear73, 0
  store i16 %bf.set74, ptr %.compoundliteral62, align 1
  %bf.load75 = load i16, ptr %.compoundliteral62, align 1
  %bf.clear76 = and i16 %bf.load75, -1025
  %bf.set77 = or i16 %bf.clear76, 0
  store i16 %bf.set77, ptr %.compoundliteral62, align 1
  %bf.load78 = load i16, ptr %.compoundliteral62, align 1
  %bf.clear79 = and i16 %bf.load78, -2049
  %bf.set80 = or i16 %bf.clear79, 0
  store i16 %bf.set80, ptr %.compoundliteral62, align 1
  %bf.load81 = load i16, ptr %.compoundliteral62, align 1
  %bf.clear82 = and i16 %bf.load81, -4097
  %bf.set83 = or i16 %bf.clear82, 0
  store i16 %bf.set83, ptr %.compoundliteral62, align 1
  call void @llvm.memcpy.p0.p0.i64(ptr align 4 %t_attrib61, ptr align 1 %.compoundliteral62, i64 2, i1 false)
  br label %if.end84

if.end84:                                         ; preds = %if.then51, %if.end28
  %42 = load ptr, ptr %be_opened.addr, align 8
  store i8 1, ptr %42, align 1
  ret void
}