; Function Attrs: nounwind sspstrong uwtable
define internal void @vc_chr_open(ptr noundef %chr, ptr noundef readonly captures(none) %backend, ptr noundef writeonly captures(none) initializes((0, 1)) %be_opened, ptr readnone captures(none) %errp) #0 {
entry:
  %_now.i.i = alloca %struct.timeval, align 8
  %u = getelementptr inbounds nuw i8, ptr %backend, i64 8
  %0 = load ptr, ptr %u, align 8
  %call.i = tail call ptr @object_dynamic_cast_assert(ptr noundef %chr, ptr noundef nonnull @.str.1, ptr noundef nonnull @.str.7, i32 noundef 852, ptr noundef nonnull @__func__.VC_CHARDEV) #12
  %has_width = getelementptr inbounds nuw i8, ptr %0, i64 10
  %1 = load i8, ptr %has_width, align 2
  %tobool = trunc i8 %1 to i1
  br i1 %tobool, label %if.then, label %if.else

if.then:                                          ; preds = %entry
  %width1 = getelementptr inbounds nuw i8, ptr %0, i64 16
  %2 = load i64, ptr %width1, align 8
  %conv = trunc i64 %2 to i32
  br label %if.end5

if.else:                                          ; preds = %entry
  %has_cols = getelementptr inbounds nuw i8, ptr %0, i64 40
  %3 = load i8, ptr %has_cols, align 8
  %tobool2 = trunc i8 %3 to i1
  br i1 %tobool2, label %if.then3, label %if.end5

if.then3:                                         ; preds = %if.else
  %cols = getelementptr inbounds nuw i8, ptr %0, i64 48
  %4 = load i64, ptr %cols, align 8
  %.tr = trunc i64 %4 to i32
  %conv4 = shl i32 %.tr, 3
  br label %if.end5

if.end5:                                          ; preds = %if.else, %if.then3, %if.then
  %width.0 = phi i32 [ %conv, %if.then ], [ %conv4, %if.then3 ], [ 0, %if.else ]
  %has_height = getelementptr inbounds nuw i8, ptr %0, i64 24
  %5 = load i8, ptr %has_height, align 8
  %tobool6 = trunc i8 %5 to i1
  br i1 %tobool6, label %if.then7, label %if.else10

if.then7:                                         ; preds = %if.end5
  %height8 = getelementptr inbounds nuw i8, ptr %0, i64 32
  %6 = load i64, ptr %height8, align 8
  %conv9 = trunc i64 %6 to i32
  br label %if.end16

if.else10:                                        ; preds = %if.end5
  %has_rows = getelementptr inbounds nuw i8, ptr %0, i64 56
  %7 = load i8, ptr %has_rows, align 8
  %tobool11 = trunc i8 %7 to i1
  br i1 %tobool11, label %if.then12, label %if.end16

if.then12:                                        ; preds = %if.else10
  %rows = getelementptr inbounds nuw i8, ptr %0, i64 64
  %8 = load i64, ptr %rows, align 8
  %.tr36 = trunc i64 %8 to i32
  %conv14 = shl i32 %.tr36, 4
  br label %if.end16

if.end16:                                         ; preds = %if.else10, %if.then12, %if.then7
  %height.0 = phi i32 [ %conv9, %if.then7 ], [ %conv14, %if.then12 ], [ 0, %if.else10 ]
  call void @llvm.lifetime.start.p0(i64 16, ptr nonnull %_now.i.i)
  %9 = load i32, ptr @trace_events_enabled_count, align 4
  %tobool.i.i = icmp ne i32 %9, 0
  %10 = load i16, ptr @_TRACE_CONSOLE_TXT_NEW_DSTATE, align 2
  %tobool4.i.i = icmp ne i16 %10, 0
  %or.cond.i.i = select i1 %tobool.i.i, i1 %tobool4.i.i, i1 false
  br i1 %or.cond.i.i, label %land.lhs.true5.i.i, label %trace_console_txt_new.exit

land.lhs.true5.i.i:                               ; preds = %if.end16
  %11 = load i32, ptr @qemu_loglevel, align 4
  %and.i.i.i = and i32 %11, 32768
  %cmp.i.not.i.i = icmp eq i32 %and.i.i.i, 0
  br i1 %cmp.i.not.i.i, label %trace_console_txt_new.exit, label %if.then.i.i

if.then.i.i:                                      ; preds = %land.lhs.true5.i.i
  %12 = load i8, ptr @message_with_timestamp, align 1
  %tobool7.i.i = trunc i8 %12 to i1
  br i1 %tobool7.i.i, label %if.then8.i.i, label %if.else.i.i

if.then8.i.i:                                     ; preds = %if.then.i.i
  %call9.i.i = call i32 @gettimeofday(ptr noundef nonnull %_now.i.i, ptr noundef null) #12
  %call10.i.i = tail call i32 @qemu_get_thread_id() #12
  %13 = load i64, ptr %_now.i.i, align 8
  %tv_usec.i.i = getelementptr inbounds nuw i8, ptr %_now.i.i, i64 8
  %14 = load i64, ptr %tv_usec.i.i, align 8
  tail call void (ptr, ...) @qemu_log(ptr noundef nonnull @.str.18, i32 noundef %call10.i.i, i64 noundef %13, i64 noundef %14, i32 noundef %width.0, i32 noundef %height.0) #12
  br label %trace_console_txt_new.exit

if.else.i.i:                                      ; preds = %if.then.i.i
  tail call void (ptr, ...) @qemu_log(ptr noundef nonnull @.str.19, i32 noundef %width.0, i32 noundef %height.0) #12
  br label %trace_console_txt_new.exit

trace_console_txt_new.exit:                       ; preds = %if.end16, %land.lhs.true5.i.i, %if.then8.i.i, %if.else.i.i
  call void @llvm.lifetime.end.p0(i64 16, ptr nonnull %_now.i.i)
  %cmp = icmp eq i32 %width.0, 0
  %cmp18 = icmp eq i32 %height.0, 0
  %or.cond = or i1 %cmp, %cmp18
  br i1 %or.cond, label %if.then20, label %if.else25

if.then20:                                        ; preds = %trace_console_txt_new.exit
  %call21 = tail call ptr @object_new(ptr noundef nonnull @.str.2) #12
  %call.i37 = tail call ptr @object_dynamic_cast_assert(ptr noundef %call21, ptr noundef nonnull @.str.2, ptr noundef nonnull @.str.4, i32 noundef 18, ptr noundef nonnull @__func__.QEMU_TEXT_CONSOLE) #12
  %call23 = tail call i32 @qemu_console_get_width(ptr noundef null, i32 noundef 640) #12
  %call24 = tail call i32 @qemu_console_get_height(ptr noundef null, i32 noundef 384) #12
  br label %if.end28

if.else25:                                        ; preds = %trace_console_txt_new.exit
  %call26 = tail call ptr @object_new(ptr noundef nonnull @.str.5) #12
  %call.i38 = tail call ptr @object_dynamic_cast_assert(ptr noundef %call26, ptr noundef nonnull @.str.2, ptr noundef nonnull @.str.4, i32 noundef 18, ptr noundef nonnull @__func__.QEMU_TEXT_CONSOLE) #12
  br label %if.end28

if.end28:                                         ; preds = %if.else25, %if.then20
  %width.1 = phi i32 [ %call23, %if.then20 ], [ %width.0, %if.else25 ]
  %height.1 = phi i32 [ %call24, %if.then20 ], [ %height.0, %if.else25 ]
  %s.0 = phi ptr [ %call.i37, %if.then20 ], [ %call.i38, %if.else25 ]
  %call.i39 = tail call ptr @object_dynamic_cast_assert(ptr noundef %s.0, ptr noundef nonnull @.str.3, ptr noundef nonnull @.str.4, i32 noundef 12, ptr noundef nonnull @__func__.QEMU_CONSOLE) #12
  %call30 = tail call ptr @qemu_create_displaysurface(i32 noundef %width.1, i32 noundef %height.1) #12
  tail call void @dpy_gfx_replace_surface(ptr noundef %call.i39, ptr noundef %call30) #12
  %chr31 = getelementptr inbounds nuw i8, ptr %s.0, i64 312
  store ptr %chr, ptr %chr31, align 8
  %console = getelementptr inbounds nuw i8, ptr %call.i, i64 152
  store ptr %s.0, ptr %console, align 8
  %t_attrib = getelementptr inbounds nuw i8, ptr %call.i, i64 180
  store i16 7, ptr %t_attrib, align 4
  tail call fastcc void @text_console_resize(ptr noundef %s.0)
  %label = getelementptr inbounds nuw i8, ptr %chr, i64 96
  %15 = load ptr, ptr %label, align 8
  %tobool50.not = icmp eq ptr %15, null
  br i1 %tobool50.not, label %if.end84, label %if.then51

if.then51:                                        ; preds = %if.end28
  %bf.load53 = load i16, ptr %t_attrib, align 4
  %bf.clear54 = and i16 %bf.load53, -241
  %bf.set55 = or disjoint i16 %bf.clear54, 16
  store i16 %bf.set55, ptr %t_attrib, align 4
  %16 = load ptr, ptr %label, align 8
  %call57 = tail call noalias ptr (ptr, ...) @g_strdup_printf(ptr noundef nonnull @.str.17, ptr noundef %16) #12
  %call58 = tail call i64 @strlen(ptr noundef nonnull dereferenceable(1) %call57) #15
  %conv59 = trunc i64 %call58 to i32
  %call60 = tail call i32 @qemu_chr_write(ptr noundef nonnull %chr, ptr noundef nonnull %call57, i32 noundef %conv59, i1 noundef zeroext true) #12
  tail call void @g_free(ptr noundef nonnull %call57) #12
  store i16 7, ptr %t_attrib, align 4
  br label %if.end84

if.end84:                                         ; preds = %if.then51, %if.end28
  store i8 1, ptr %be_opened, align 1
  ret void
}